target datalayout = "e-m:e-p270:32:32-p271:32:32-p272:64:64-i64:64-i128:128-f80:128-n8:16:32:64-S128"
target triple = "x86_64-pc-linux-gnu"

%struct.evp_cipher_info_st = type { ptr, [16 x i8] }

@.str.9 = private unnamed_addr constant [12 x i8] c"Expecting: \00", align 1
@.str.14 = private unnamed_addr constant [16 x i8] c"ANY PRIVATE KEY\00", align 1
@.str.15 = private unnamed_addr constant [22 x i8] c"ENCRYPTED PRIVATE KEY\00", align 1
@.str.16 = private unnamed_addr constant [12 x i8] c"PRIVATE KEY\00", align 1
@.str.17 = private unnamed_addr constant [16 x i8] c"RSA PRIVATE KEY\00", align 1
@.str.18 = private unnamed_addr constant [15 x i8] c"EC PRIVATE KEY\00", align 1
@.str.19 = private unnamed_addr constant [16 x i8] c"DSA PRIVATE KEY\00", align 1
@.str.20 = private unnamed_addr constant [17 x i8] c"X509 CERTIFICATE\00", align 1
@.str.21 = private unnamed_addr constant [12 x i8] c"CERTIFICATE\00", align 1
@.str.22 = private unnamed_addr constant [24 x i8] c"NEW CERTIFICATE REQUEST\00", align 1
@.str.23 = private unnamed_addr constant [20 x i8] c"CERTIFICATE REQUEST\00", align 1
@.str.24 = private unnamed_addr constant [20 x i8] c"TRUSTED CERTIFICATE\00", align 1
@.str.25 = private unnamed_addr constant [6 x i8] c"PKCS7\00", align 1
@.str.26 = private unnamed_addr constant [20 x i8] c"PKCS #7 SIGNED DATA\00", align 1

; Function Attrs: nounwind uwtable
define internal i32 @check_pem(ptr noundef %0, ptr noundef %1) #0 {
  %3 = alloca i32, align 4
  %4 = alloca ptr, align 8
  %5 = alloca ptr, align 8
  store ptr %0, ptr %4, align 8, !tbaa !6
  store ptr %1, ptr %5, align 8, !tbaa !6
  %6 = load ptr, ptr %4, align 8, !tbaa !6
  %7 = load ptr, ptr %5, align 8, !tbaa !6
  %8 = call i32 @strcmp(ptr noundef %6, ptr noundef %7) #8
  %9 = icmp ne i32 %8, 0
  br i1 %9, label %11, label %10

10:                                               ; preds = %2
  store i32 1, ptr %3, align 4
  br label %94

11:                                               ; preds = %2
  %12 = load ptr, ptr %5, align 8, !tbaa !6
  %13 = call i32 @strcmp(ptr noundef %12, ptr noundef @.str.14) #8
  %14 = icmp ne i32 %13, 0
  br i1 %14, label %39, label %15

15:                                               ; preds = %11
  %16 = load ptr, ptr %4, align 8, !tbaa !6
  %17 = call i32 @strcmp(ptr noundef %16, ptr noundef @.str.15) #8
  %18 = icmp ne i32 %17, 0
  br i1 %18, label %19, label %36

19:                                               ; preds = %15
  %20 = load ptr, ptr %4, align 8, !tbaa !6
  %21 = call i32 @strcmp(ptr noundef %20, ptr noundef @.str.16) #8
  %22 = icmp ne i32 %21, 0
  br i1 %22, label %23, label %36

23:                                               ; preds = %19
  %24 = load ptr, ptr %4, align 8, !tbaa !6
  %25 = call i32 @strcmp(ptr noundef %24, ptr noundef @.str.17) #8
  %26 = icmp ne i32 %25, 0
  br i1 %26, label %27, label %36

27:                                               ; preds = %23
  %28 = load ptr, ptr %4, align 8, !tbaa !6
  %29 = call i32 @strcmp(ptr noundef %28, ptr noundef @.str.18) #8
  %30 = icmp ne i32 %29, 0
  br i1 %30, label %31, label %36

31:                                               ; preds = %27
  %32 = load ptr, ptr %4, align 8, !tbaa !6
  %33 = call i32 @strcmp(ptr noundef %32, ptr noundef @.str.19) #8
  %34 = icmp ne i32 %33, 0
  %35 = xor i1 %34, true
  br label %36

36:                                               ; preds = %31, %27, %23, %19, %15
  %37 = phi i1 [ true, %27 ], [ true, %23 ], [ true, %19 ], [ true, %15 ], [ %35, %31 ]
  %38 = zext i1 %37 to i32
  store i32 %38, ptr %3, align 4
  br label %94

39:                                               ; preds = %11
  %40 = load ptr, ptr %4, align 8, !tbaa !6
  %41 = call i32 @strcmp(ptr noundef %40, ptr noundef @.str.20) #8
  %42 = icmp ne i32 %41, 0
  br i1 %42, label %48, label %43

43:                                               ; preds = %39
  %44 = load ptr, ptr %5, align 8, !tbaa !6
  %45 = call i32 @strcmp(ptr noundef %44, ptr noundef @.str.21) #8
  %46 = icmp ne i32 %45, 0
  br i1 %46, label %48, label %47

47:                                               ; preds = %43
  store i32 1, ptr %3, align 4
  br label %94

48:                                               ; preds = %43, %39
  %49 = load ptr, ptr %4, align 8, !tbaa !6
  %50 = call i32 @strcmp(ptr noundef %49, ptr noundef @.str.22) #8
  %51 = icmp ne i32 %50, 0
  br i1 %51, label %57, label %52

52:                                               ; preds = %48
  %53 = load ptr, ptr %5, align 8, !tbaa !6
  %54 = call i32 @strcmp(ptr noundef %53, ptr noundef @.str.23) #8
  %55 = icmp ne i32 %54, 0
  br i1 %55, label %57, label %56

56:                                               ; preds = %52
  store i32 1, ptr %3, align 4
  br label %94

57:                                               ; preds = %52, %48
  %58 = load ptr, ptr %4, align 8, !tbaa !6
  %59 = call i32 @strcmp(ptr noundef %58, ptr noundef @.str.21) #8
  %60 = icmp ne i32 %59, 0
  br i1 %60, label %66, label %61

61:                                               ; preds = %57
  %62 = load ptr, ptr %5, align 8, !tbaa !6
  %63 = call i32 @strcmp(ptr noundef %62, ptr noundef @.str.24) #8
  %64 = icmp ne i32 %63, 0
  br i1 %64, label %66, label %65

65:                                               ; preds = %61
  store i32 1, ptr %3, align 4
  br label %94

66:                                               ; preds = %61, %57
  %67 = load ptr, ptr %4, align 8, !tbaa !6
  %68 = call i32 @strcmp(ptr noundef %67, ptr noundef @.str.20) #8
  %69 = icmp ne i32 %68, 0
  br i1 %69, label %75, label %70

70:                                               ; preds = %66
  %71 = load ptr, ptr %5, align 8, !tbaa !6
  %72 = call i32 @strcmp(ptr noundef %71, ptr noundef @.str.24) #8
  %73 = icmp ne i32 %72, 0
  br i1 %73, label %75, label %74

74:                                               ; preds = %70
  store i32 1, ptr %3, align 4
  br label %94

75:                                               ; preds = %70, %66
  %76 = load ptr, ptr %4, align 8, !tbaa !6
  %77 = call i32 @strcmp(ptr noundef %76, ptr noundef @.str.21) #8
  %78 = icmp ne i32 %77, 0
  br i1 %78, label %84, label %79

79:                                               ; preds = %75
  %80 = load ptr, ptr %5, align 8, !tbaa !6
  %81 = call i32 @strcmp(ptr noundef %80, ptr noundef @.str.25) #8
  %82 = icmp ne i32 %81, 0
  br i1 %82, label %84, label %83

83:                                               ; preds = %79
  store i32 1, ptr %3, align 4
  br label %94

84:                                               ; preds = %79, %75
  %85 = load ptr, ptr %4, align 8, !tbaa !6
  %86 = call i32 @strcmp(ptr noundef %85, ptr noundef @.str.26) #8
  %87 = icmp ne i32 %86, 0
  br i1 %87, label %93, label %88

88:                                               ; preds = %84
  %89 = load ptr, ptr %5, align 8, !tbaa !6
  %90 = call i32 @strcmp(ptr noundef %89, ptr noundef @.str.25) #8
  %91 = icmp ne i32 %90, 0
  br i1 %91, label %93, label %92

92:                                               ; preds = %88
  store i32 1, ptr %3, align 4
  br label %94

93:                                               ; preds = %88, %84
  store i32 0, ptr %3, align 4
  br label %94

94:                                               ; preds = %93, %92, %83, %74, %65, %56, %47, %36, %10
  %95 = load i32, ptr %3, align 4
  ret i32 %95
}

; Function Attrs: nounwind uwtable
define hidden i32 @PEM_bytes_read_bio(ptr noundef %0, ptr noundef %1, ptr noundef %2, ptr noundef %3, ptr noundef %4, ptr noundef %5, ptr noundef %6) #0 {
  %8 = alloca i32, align 4
  %9 = alloca ptr, align 8
  %10 = alloca ptr, align 8
  %11 = alloca ptr, align 8
  %12 = alloca ptr, align 8
  %13 = alloca ptr, align 8
  %14 = alloca ptr, align 8
  %15 = alloca ptr, align 8
  %16 = alloca %struct.evp_cipher_info_st, align 8
  %17 = alloca ptr, align 8
  %18 = alloca ptr, align 8
  %19 = alloca ptr, align 8
  %20 = alloca i64, align 8
  %21 = alloca i32, align 4
  %22 = alloca i32, align 4
  store ptr %0, ptr %9, align 8, !tbaa !23
  store ptr %1, ptr %10, align 8, !tbaa !25
  store ptr %2, ptr %11, align 8, !tbaa !23
  store ptr %3, ptr %12, align 8, !tbaa !6
  store ptr %4, ptr %13, align 8, !tbaa !21
  store ptr %5, ptr %14, align 8, !tbaa !18
  store ptr %6, ptr %15, align 8, !tbaa !18
  call void @llvm.lifetime.start.p0(i64 24, ptr %16) #7
  call void @llvm.lifetime.start.p0(i64 8, ptr %17) #7
  store ptr null, ptr %17, align 8, !tbaa !6
  call void @llvm.lifetime.start.p0(i64 8, ptr %18) #7
  store ptr null, ptr %18, align 8, !tbaa !6
  call void @llvm.lifetime.start.p0(i64 8, ptr %19) #7
  store ptr null, ptr %19, align 8, !tbaa !6
  call void @llvm.lifetime.start.p0(i64 8, ptr %20) #7
  call void @llvm.lifetime.start.p0(i64 4, ptr %21) #7
  store i32 0, ptr %21, align 4, !tbaa !11
  br label %23

23:                                               ; preds = %40, %7
  %24 = load ptr, ptr %13, align 8, !tbaa !21
  %25 = call i32 @PEM_read_bio(ptr noundef %24, ptr noundef %17, ptr noundef %18, ptr noundef %19, ptr noundef %20)
  %26 = icmp ne i32 %25, 0
  br i1 %26, label %34, label %27

27:                                               ; preds = %23
  %28 = call i32 @ERR_peek_error()
  %29 = and i32 %28, 4095
  %30 = icmp eq i32 %29, 110
  br i1 %30, label %31, label %33

31:                                               ; preds = %27
  %32 = load ptr, ptr %12, align 8, !tbaa !6
  call void (i32, ...) @ERR_add_error_data(i32 noundef 2, ptr noundef @.str.9, ptr noundef %32)
  br label %33

33:                                               ; preds = %31, %27
  store i32 0, ptr %8, align 4
  store i32 1, ptr %22, align 4
  br label %83

34:                                               ; preds = %23
  %35 = load ptr, ptr %17, align 8, !tbaa !6
  %36 = load ptr, ptr %12, align 8, !tbaa !6
  %37 = call i32 @check_pem(ptr noundef %35, ptr noundef %36)
  %38 = icmp ne i32 %37, 0
  br i1 %38, label %39, label %40

39:                                               ; preds = %34
  br label %44

40:                                               ; preds = %34
  %41 = load ptr, ptr %17, align 8, !tbaa !6
  call void @free(ptr noundef %41) #7
  %42 = load ptr, ptr %18, align 8, !tbaa !6
  call void @free(ptr noundef %42) #7
  %43 = load ptr, ptr %19, align 8, !tbaa !6
  call void @free(ptr noundef %43) #7
  br label %23

44:                                               ; preds = %39
  %45 = load ptr, ptr %18, align 8, !tbaa !6
  %46 = call i32 @PEM_get_EVP_CIPHER_INFO(ptr noundef %45, ptr noundef %16)
  %47 = icmp ne i32 %46, 0
  br i1 %47, label %49, label %48

48:                                               ; preds = %44
  br label %67

49:                                               ; preds = %44
  %50 = load ptr, ptr %19, align 8, !tbaa !6
  %51 = load ptr, ptr %14, align 8, !tbaa !18
  %52 = load ptr, ptr %15, align 8, !tbaa !18
  %53 = call i32 @PEM_do_header(ptr noundef %16, ptr noundef %50, ptr noundef %20, ptr noundef %51, ptr noundef %52)
  %54 = icmp ne i32 %53, 0
  br i1 %54, label %56, label %55

55:                                               ; preds = %49
  br label %67

56:                                               ; preds = %49
  %57 = load ptr, ptr %19, align 8, !tbaa !6
  %58 = load ptr, ptr %9, align 8, !tbaa !23
  store ptr %57, ptr %58, align 8, !tbaa !6
  %59 = load i64, ptr %20, align 8, !tbaa !13
  %60 = load ptr, ptr %10, align 8, !tbaa !25
  store i64 %59, ptr %60, align 8, !tbaa !13
  %61 = load ptr, ptr %11, align 8, !tbaa !23
  %62 = icmp ne ptr %61, null
  br i1 %62, label %63, label %66

63:                                               ; preds = %56
  %64 = load ptr, ptr %17, align 8, !tbaa !6
  %65 = load ptr, ptr %11, align 8, !tbaa !23
  store ptr %64, ptr %65, align 8, !tbaa !6
  br label %66

66:                                               ; preds = %63, %56
  store i32 1, ptr %21, align 4, !tbaa !11
  br label %67

67:                                               ; preds = %66, %55, %48
  %68 = load i32, ptr %21, align 4, !tbaa !11
  %69 = icmp ne i32 %68, 0
  br i1 %69, label %70, label %73

70:                                               ; preds = %67
  %71 = load ptr, ptr %11, align 8, !tbaa !23
  %72 = icmp ne ptr %71, null
  br i1 %72, label %75, label %73

73:                                               ; preds = %70, %67
  %74 = load ptr, ptr %17, align 8, !tbaa !6
  call void @free(ptr noundef %74) #7
  br label %75

75:                                               ; preds = %73, %70
  %76 = load ptr, ptr %18, align 8, !tbaa !6
  call void @free(ptr noundef %76) #7
  %77 = load i32, ptr %21, align 4, !tbaa !11
  %78 = icmp ne i32 %77, 0
  br i1 %78, label %81, label %79

79:                                               ; preds = %75
  %80 = load ptr, ptr %19, align 8, !tbaa !6
  call void @free(ptr noundef %80) #7
  br label %81

81:                                               ; preds = %79, %75
  %82 = load i32, ptr %21, align 4, !tbaa !11
  store i32 %82, ptr %8, align 4
  store i32 1, ptr %22, align 4
  br label %83

83:                                               ; preds = %81, %33
  call void @llvm.lifetime.end.p0(i64 4, ptr %21) #7
  call void @llvm.lifetime.end.p0(i64 8, ptr %20) #7
  call void @llvm.lifetime.end.p0(i64 8, ptr %19) #7
  call void @llvm.lifetime.end.p0(i64 8, ptr %18) #7
  call void @llvm.lifetime.end.p0(i64 8, ptr %17) #7
  call void @llvm.lifetime.end.p0(i64 24, ptr %16) #7
  %84 = load i32, ptr %8, align 4
  ret i32 %84
}