; Function Attrs: nounwind uwtable
define hidden range(i32 0, 2) i32 @PEM_bytes_read_bio(ptr noundef writeonly captures(none) %0, ptr noundef writeonly captures(none) %1, ptr noundef writeonly captures(address_is_null) %2, ptr noundef %3, ptr noundef %4, ptr noundef captures(address_is_null) %5, ptr noundef %6) local_unnamed_addr #0 {
  %8 = alloca %struct.evp_cipher_info_st, align 8
  %9 = alloca ptr, align 8
  %10 = alloca ptr, align 8
  %11 = alloca ptr, align 8
  %12 = alloca i64, align 8
  call void @llvm.lifetime.start.p0(i64 24, ptr nonnull %8) #12
  call void @llvm.lifetime.start.p0(i64 8, ptr nonnull %9) #12
  store ptr null, ptr %9, align 8, !tbaa !11
  call void @llvm.lifetime.start.p0(i64 8, ptr nonnull %10) #12
  store ptr null, ptr %10, align 8, !tbaa !11
  call void @llvm.lifetime.start.p0(i64 8, ptr nonnull %11) #12
  store ptr null, ptr %11, align 8, !tbaa !11
  call void @llvm.lifetime.start.p0(i64 8, ptr nonnull %12) #12
  %13 = call i32 @PEM_read_bio(ptr noundef %4, ptr noundef nonnull %9, ptr noundef nonnull %10, ptr noundef nonnull %11, ptr noundef nonnull %12)
  %.not31 = icmp eq i32 %13, 0
  br i1 %.not31, label %._crit_edge, label %.lr.ph

._crit_edge:                                      ; preds = %check_pem.exit.thread22, %7
  %14 = tail call i32 @ERR_peek_error() #12
  %15 = and i32 %14, 4095
  %16 = icmp eq i32 %15, 110
  br i1 %16, label %17, label %66

17:                                               ; preds = %._crit_edge
  tail call void (i32, ...) @ERR_add_error_data(i32 noundef 2, ptr noundef nonnull @.str.9, ptr noundef %3) #12
  br label %66

.lr.ph:                                           ; preds = %7, %check_pem.exit.thread22
  %18 = load ptr, ptr %9, align 8, !tbaa !11
  %19 = tail call i32 @strcmp(ptr noundef nonnull readonly dereferenceable(1) %18, ptr noundef nonnull readonly dereferenceable(1) %3) #13
  %.not.i = icmp eq i32 %19, 0
  br i1 %.not.i, label %check_pem.exit.thread, label %20

20:                                               ; preds = %.lr.ph
  %21 = tail call i32 @strcmp(ptr noundef nonnull readonly dereferenceable(1) %3, ptr noundef nonnull dereferenceable(16) @.str.14) #13
  %.not20.i = icmp eq i32 %21, 0
  br i1 %.not20.i, label %22, label %30

22:                                               ; preds = %20
  %23 = tail call i32 @strcmp(ptr noundef nonnull readonly dereferenceable(1) %18, ptr noundef nonnull dereferenceable(22) @.str.15) #13
  %.not21.i = icmp eq i32 %23, 0
  br i1 %.not21.i, label %check_pem.exit.thread, label %24

24:                                               ; preds = %22
  %25 = tail call i32 @strcmp(ptr noundef nonnull readonly dereferenceable(1) %18, ptr noundef nonnull dereferenceable(12) @.str.16) #13
  %.not22.i = icmp eq i32 %25, 0
  br i1 %.not22.i, label %check_pem.exit.thread, label %26

26:                                               ; preds = %24
  %27 = tail call i32 @strcmp(ptr noundef nonnull readonly dereferenceable(1) %18, ptr noundef nonnull dereferenceable(16) @.str.17) #13
  %.not23.i = icmp eq i32 %27, 0
  br i1 %.not23.i, label %check_pem.exit.thread, label %28

28:                                               ; preds = %26
  %29 = tail call i32 @strcmp(ptr noundef nonnull readonly dereferenceable(1) %18, ptr noundef nonnull dereferenceable(15) @.str.18) #13
  %.not24.i = icmp eq i32 %29, 0
  br i1 %.not24.i, label %check_pem.exit.thread, label %check_pem.exit

30:                                               ; preds = %20
  %31 = tail call i32 @strcmp(ptr noundef nonnull readonly dereferenceable(1) %18, ptr noundef nonnull dereferenceable(17) @.str.20) #13
  %.not26.i = icmp eq i32 %31, 0
  br i1 %.not26.i, label %32, label %34

32:                                               ; preds = %30
  %33 = tail call i32 @strcmp(ptr noundef nonnull readonly dereferenceable(1) %3, ptr noundef nonnull dereferenceable(12) @.str.21) #13
  %.not27.i = icmp eq i32 %33, 0
  br i1 %.not27.i, label %check_pem.exit.thread, label %34

34:                                               ; preds = %32, %30
  %35 = tail call i32 @strcmp(ptr noundef nonnull readonly dereferenceable(1) %18, ptr noundef nonnull dereferenceable(24) @.str.22) #13
  %.not28.i = icmp eq i32 %35, 0
  br i1 %.not28.i, label %36, label %38

36:                                               ; preds = %34
  %37 = tail call i32 @strcmp(ptr noundef nonnull readonly dereferenceable(1) %3, ptr noundef nonnull dereferenceable(20) @.str.23) #13
  %.not29.i = icmp eq i32 %37, 0
  br i1 %.not29.i, label %check_pem.exit.thread, label %38

38:                                               ; preds = %36, %34
  %39 = tail call i32 @strcmp(ptr noundef nonnull readonly dereferenceable(1) %18, ptr noundef nonnull dereferenceable(12) @.str.21) #13
  %.not30.i = icmp eq i32 %39, 0
  br i1 %.not30.i, label %40, label %42

40:                                               ; preds = %38
  %41 = tail call i32 @strcmp(ptr noundef nonnull readonly dereferenceable(1) %3, ptr noundef nonnull dereferenceable(20) @.str.24) #13
  %.not31.i = icmp eq i32 %41, 0
  br i1 %.not31.i, label %check_pem.exit.thread, label %42

42:                                               ; preds = %40, %38
  br i1 %.not26.i, label %43, label %45

43:                                               ; preds = %42
  %44 = tail call i32 @strcmp(ptr noundef nonnull readonly dereferenceable(1) %3, ptr noundef nonnull dereferenceable(20) @.str.24) #13
  %.not33.i = icmp eq i32 %44, 0
  br i1 %.not33.i, label %check_pem.exit.thread, label %45

45:                                               ; preds = %43, %42
  br i1 %.not30.i, label %46, label %48

46:                                               ; preds = %45
  %47 = tail call i32 @strcmp(ptr noundef nonnull readonly dereferenceable(1) %3, ptr noundef nonnull dereferenceable(6) @.str.25) #13
  %.not35.i = icmp eq i32 %47, 0
  br i1 %.not35.i, label %check_pem.exit.thread, label %48

48:                                               ; preds = %46, %45
  %49 = tail call i32 @strcmp(ptr noundef nonnull readonly dereferenceable(1) %18, ptr noundef nonnull dereferenceable(20) @.str.26) #13
  %.not36.i = icmp eq i32 %49, 0
  br i1 %.not36.i, label %50, label %check_pem.exit.thread22

50:                                               ; preds = %48
  %51 = tail call i32 @strcmp(ptr noundef nonnull readonly dereferenceable(1) %3, ptr noundef nonnull dereferenceable(6) @.str.25) #13
  %.not37.i = icmp eq i32 %51, 0
  br i1 %.not37.i, label %check_pem.exit.thread, label %check_pem.exit.thread22

check_pem.exit:                                   ; preds = %28
  %52 = tail call i32 @strcmp(ptr noundef nonnull readonly dereferenceable(1) %18, ptr noundef nonnull dereferenceable(16) @.str.19) #13
  %.not25.i.not = icmp eq i32 %52, 0
  br i1 %.not25.i.not, label %check_pem.exit.thread, label %check_pem.exit.thread22

check_pem.exit.thread22:                          ; preds = %50, %48, %check_pem.exit
  tail call void @free(ptr noundef nonnull %18) #12
  %53 = load ptr, ptr %10, align 8, !tbaa !11
  tail call void @free(ptr noundef %53) #12
  %54 = load ptr, ptr %11, align 8, !tbaa !11
  tail call void @free(ptr noundef %54) #12
  %55 = call i32 @PEM_read_bio(ptr noundef %4, ptr noundef nonnull %9, ptr noundef nonnull %10, ptr noundef nonnull %11, ptr noundef nonnull %12)
  %.not = icmp eq i32 %55, 0
  br i1 %.not, label %._crit_edge, label %.lr.ph

check_pem.exit.thread:                            ; preds = %50, %46, %43, %40, %36, %32, %22, %24, %26, %28, %.lr.ph, %check_pem.exit
  %56 = load ptr, ptr %10, align 8, !tbaa !11
  %57 = call i32 @PEM_get_EVP_CIPHER_INFO(ptr noundef %56, ptr noundef nonnull %8)
  %.not17 = icmp eq i32 %57, 0
  br i1 %.not17, label %.thread, label %58

58:                                               ; preds = %check_pem.exit.thread
  %59 = load ptr, ptr %11, align 8, !tbaa !11
  %60 = call i32 @PEM_do_header(ptr noundef nonnull %8, ptr noundef %59, ptr noundef nonnull %12, ptr noundef %5, ptr noundef %6)
  %.not18 = icmp eq i32 %60, 0
  br i1 %.not18, label %.thread, label %61

61:                                               ; preds = %58
  store ptr %59, ptr %0, align 8, !tbaa !11
  %62 = load i64, ptr %12, align 8, !tbaa !14
  store i64 %62, ptr %1, align 8, !tbaa !14
  %.not19 = icmp eq ptr %2, null
  br i1 %.not19, label %.thread, label %.thread29

.thread29:                                        ; preds = %61
  store ptr %18, ptr %2, align 8, !tbaa !11
  call void @free(ptr noundef %56) #12
  br label %66

.thread:                                          ; preds = %61, %check_pem.exit.thread, %58
  %.027 = phi i32 [ 1, %61 ], [ 0, %check_pem.exit.thread ], [ 0, %58 ]
  %63 = phi i1 [ true, %61 ], [ false, %check_pem.exit.thread ], [ false, %58 ]
  call void @free(ptr noundef nonnull %18) #12
  call void @free(ptr noundef %56) #12
  br i1 %63, label %66, label %64

64:                                               ; preds = %.thread
  %65 = load ptr, ptr %11, align 8, !tbaa !11
  call void @free(ptr noundef %65) #12
  br label %66

66:                                               ; preds = %.thread29, %.thread, %64, %._crit_edge, %17
  %.014 = phi i32 [ 0, %17 ], [ 0, %._crit_edge ], [ %.027, %64 ], [ %.027, %.thread ], [ 1, %.thread29 ]
  call void @llvm.lifetime.end.p0(i64 8, ptr nonnull %12) #12
  call void @llvm.lifetime.end.p0(i64 8, ptr nonnull %11) #12
  call void @llvm.lifetime.end.p0(i64 8, ptr nonnull %10) #12
  call void @llvm.lifetime.end.p0(i64 8, ptr nonnull %9) #12
  call void @llvm.lifetime.end.p0(i64 24, ptr nonnull %8) #12
  ret i32 %.014
}